target datalayout = "e-m:e-p270:32:32-p271:32:32-p272:64:64-i64:64-i128:128-f80:128-n8:16:32:64-S128"
target triple = "x86_64-pc-linux-gnu"

%struct.AVChannelLayout = type { i32, i32, %union.anon.1, ptr }
%union.anon.1 = type { i64 }
%struct.AVRational = type { i32, i32 }
%struct.AVFrame = type { [8 x ptr], [8 x i32], ptr, i32, i32, i32, i32, i32, %struct.AVRational, i64, i64, %struct.AVRational, i32, ptr, i32, i32, [8 x ptr], ptr, i32, ptr, i32, i32, i32, i32, i32, i32, i32, i64, ptr, i32, ptr, ptr, i64, i64, i64, i64, ptr, %struct.AVChannelLayout, i64 }

; Function Attrs: nounwind uwtable
define internal void @pick_pixel3_16(ptr noundef %0, i32 noundef %1, i32 noundef %2, ptr noundef %3, ptr noundef %4, ptr noundef %5, ptr noundef %6) #1 {
  %8 = alloca ptr, align 8
  %9 = alloca i32, align 4
  %10 = alloca i32, align 4
  %11 = alloca ptr, align 8
  %12 = alloca ptr, align 8
  %13 = alloca ptr, align 8
  %14 = alloca ptr, align 8
  store ptr %0, ptr %8, align 8, !tbaa !26
  store i32 %1, ptr %9, align 4, !tbaa !36
  store i32 %2, ptr %10, align 4, !tbaa !36
  store ptr %3, ptr %11, align 8, !tbaa !72
  store ptr %4, ptr %12, align 8, !tbaa !72
  store ptr %5, ptr %13, align 8, !tbaa !72
  store ptr %6, ptr %14, align 8, !tbaa !72
  %15 = load ptr, ptr %11, align 8, !tbaa !72
  %16 = load i32, ptr %15, align 4, !tbaa !36
  %17 = icmp slt i32 %16, 0
  br i1 %17, label %18, label %38

18:                                               ; preds = %7
  %19 = load ptr, ptr %8, align 8, !tbaa !26
  %20 = getelementptr inbounds nuw %struct.AVFrame, ptr %19, i32 0, i32 0
  %21 = getelementptr inbounds [8 x ptr], ptr %20, i64 0, i64 0
  %22 = load ptr, ptr %21, align 8, !tbaa !70
  %23 = load i32, ptr %10, align 4, !tbaa !36
  %24 = load ptr, ptr %8, align 8, !tbaa !26
  %25 = getelementptr inbounds nuw %struct.AVFrame, ptr %24, i32 0, i32 1
  %26 = getelementptr inbounds [8 x i32], ptr %25, i64 0, i64 0
  %27 = load i32, ptr %26, align 8, !tbaa !36
  %28 = mul nsw i32 %23, %27
  %29 = sext i32 %28 to i64
  %30 = getelementptr inbounds i8, ptr %22, i64 %29
  %31 = load i32, ptr %9, align 4, !tbaa !36
  %32 = mul nsw i32 2, %31
  %33 = sext i32 %32 to i64
  %34 = getelementptr inbounds i8, ptr %30, i64 %33
  %35 = load i16, ptr %34, align 1, !tbaa !71
  %36 = zext i16 %35 to i32
  %37 = load ptr, ptr %11, align 8, !tbaa !72
  store i32 %36, ptr %37, align 4, !tbaa !36
  br label %38

38:                                               ; preds = %18, %7
  %39 = load ptr, ptr %12, align 8, !tbaa !72
  %40 = load i32, ptr %39, align 4, !tbaa !36
  %41 = icmp slt i32 %40, 0
  br i1 %41, label %42, label %62

42:                                               ; preds = %38
  %43 = load ptr, ptr %8, align 8, !tbaa !26
  %44 = getelementptr inbounds nuw %struct.AVFrame, ptr %43, i32 0, i32 0
  %45 = getelementptr inbounds [8 x ptr], ptr %44, i64 0, i64 1
  %46 = load ptr, ptr %45, align 8, !tbaa !70
  %47 = load i32, ptr %10, align 4, !tbaa !36
  %48 = load ptr, ptr %8, align 8, !tbaa !26
  %49 = getelementptr inbounds nuw %struct.AVFrame, ptr %48, i32 0, i32 1
  %50 = getelementptr inbounds [8 x i32], ptr %49, i64 0, i64 1
  %51 = load i32, ptr %50, align 4, !tbaa !36
  %52 = mul nsw i32 %47, %51
  %53 = sext i32 %52 to i64
  %54 = getelementptr inbounds i8, ptr %46, i64 %53
  %55 = load i32, ptr %9, align 4, !tbaa !36
  %56 = mul nsw i32 2, %55
  %57 = sext i32 %56 to i64
  %58 = getelementptr inbounds i8, ptr %54, i64 %57
  %59 = load i16, ptr %58, align 1, !tbaa !71
  %60 = zext i16 %59 to i32
  %61 = load ptr, ptr %12, align 8, !tbaa !72
  store i32 %60, ptr %61, align 4, !tbaa !36
  br label %62

62:                                               ; preds = %42, %38
  %63 = load ptr, ptr %13, align 8, !tbaa !72
  %64 = load i32, ptr %63, align 4, !tbaa !36
  %65 = icmp slt i32 %64, 0
  br i1 %65, label %66, label %86

66:                                               ; preds = %62
  %67 = load ptr, ptr %8, align 8, !tbaa !26
  %68 = getelementptr inbounds nuw %struct.AVFrame, ptr %67, i32 0, i32 0
  %69 = getelementptr inbounds [8 x ptr], ptr %68, i64 0, i64 2
  %70 = load ptr, ptr %69, align 8, !tbaa !70
  %71 = load i32, ptr %10, align 4, !tbaa !36
  %72 = load ptr, ptr %8, align 8, !tbaa !26
  %73 = getelementptr inbounds nuw %struct.AVFrame, ptr %72, i32 0, i32 1
  %74 = getelementptr inbounds [8 x i32], ptr %73, i64 0, i64 2
  %75 = load i32, ptr %74, align 8, !tbaa !36
  %76 = mul nsw i32 %71, %75
  %77 = sext i32 %76 to i64
  %78 = getelementptr inbounds i8, ptr %70, i64 %77
  %79 = load i32, ptr %9, align 4, !tbaa !36
  %80 = mul nsw i32 2, %79
  %81 = sext i32 %80 to i64
  %82 = getelementptr inbounds i8, ptr %78, i64 %81
  %83 = load i16, ptr %82, align 1, !tbaa !71
  %84 = zext i16 %83 to i32
  %85 = load ptr, ptr %13, align 8, !tbaa !72
  store i32 %84, ptr %85, align 4, !tbaa !36
  br label %86

86:                                               ; preds = %66, %62
  ret void
}