; Function Attrs: mustprogress nofree norecurse nosync nounwind willreturn memory(read, argmem: readwrite, inaccessiblemem: none) uwtable
define internal void @pick_pixel3_16(ptr noundef readonly captures(none) %0, i32 noundef %1, i32 noundef %2, ptr noundef captures(none) %3, ptr noundef captures(none) %4, ptr noundef captures(none) %5, ptr readnone captures(none) %6) #6 {
  %8 = load i32, ptr %3, align 4, !tbaa !31
  %9 = icmp slt i32 %8, 0
  br i1 %9, label %10, label %22

10:                                               ; preds = %7
  %11 = load ptr, ptr %0, align 8, !tbaa !65
  %12 = getelementptr inbounds nuw i8, ptr %0, i64 64
  %13 = load i32, ptr %12, align 8, !tbaa !31
  %14 = mul nsw i32 %13, %2
  %15 = sext i32 %14 to i64
  %16 = getelementptr inbounds i8, ptr %11, i64 %15
  %17 = shl nsw i32 %1, 1
  %18 = sext i32 %17 to i64
  %19 = getelementptr inbounds i8, ptr %16, i64 %18
  %20 = load i16, ptr %19, align 1, !tbaa !66
  %21 = zext i16 %20 to i32
  store i32 %21, ptr %3, align 4, !tbaa !31
  br label %22

22:                                               ; preds = %10, %7
  %23 = load i32, ptr %4, align 4, !tbaa !31
  %24 = icmp slt i32 %23, 0
  br i1 %24, label %25, label %38

25:                                               ; preds = %22
  %26 = getelementptr inbounds nuw i8, ptr %0, i64 8
  %27 = load ptr, ptr %26, align 8, !tbaa !65
  %28 = getelementptr inbounds nuw i8, ptr %0, i64 68
  %29 = load i32, ptr %28, align 4, !tbaa !31
  %30 = mul nsw i32 %29, %2
  %31 = sext i32 %30 to i64
  %32 = getelementptr inbounds i8, ptr %27, i64 %31
  %33 = shl nsw i32 %1, 1
  %34 = sext i32 %33 to i64
  %35 = getelementptr inbounds i8, ptr %32, i64 %34
  %36 = load i16, ptr %35, align 1, !tbaa !66
  %37 = zext i16 %36 to i32
  store i32 %37, ptr %4, align 4, !tbaa !31
  br label %38

38:                                               ; preds = %25, %22
  %39 = load i32, ptr %5, align 4, !tbaa !31
  %40 = icmp slt i32 %39, 0
  br i1 %40, label %41, label %54

41:                                               ; preds = %38
  %42 = getelementptr inbounds nuw i8, ptr %0, i64 16
  %43 = load ptr, ptr %42, align 8, !tbaa !65
  %44 = getelementptr inbounds nuw i8, ptr %0, i64 72
  %45 = load i32, ptr %44, align 8, !tbaa !31
  %46 = mul nsw i32 %45, %2
  %47 = sext i32 %46 to i64
  %48 = getelementptr inbounds i8, ptr %43, i64 %47
  %49 = shl nsw i32 %1, 1
  %50 = sext i32 %49 to i64
  %51 = getelementptr inbounds i8, ptr %48, i64 %50
  %52 = load i16, ptr %51, align 1, !tbaa !66
  %53 = zext i16 %52 to i32
  store i32 %53, ptr %5, align 4, !tbaa !31
  br label %54

54:                                               ; preds = %41, %38
  ret void
}